; ModuleID = '62/593.c'
source_filename = "62/593.c"
target datalayout = "e-m:e-p270:32:32-p271:32:32-p272:64:64-i64:64-f80:128-n8:16:32:64-S128"
target triple = "x86_64-pc-linux-gnu"

@.str = private unnamed_addr constant [3 x i8] c"%c\00", align 1
@.str.1 = private unnamed_addr constant [2 x i8] c" \00", align 1

; Function Attrs: noinline nounwind uwtable
define dso_local void @main() #0 {
  %1 = alloca i8*, align 8
  %2 = alloca i8*, align 8
  %3 = call noalias i8* @malloc(i64 100) #3
  store i8* %3, i8** %1, align 8
  store i8* %3, i8** %2, align 8
  %4 = load i8*, i8** %1, align 8
  %5 = call i32 (i8*, ...) bitcast (i32 (...)* @gets to i32 (i8*, ...)*)(i8* %4)
  %6 = load i8*, i8** %2, align 8
  store i8* %6, i8** %1, align 8
  br label %7

7:                                                ; preds = %43, %0
  %8 = load i8*, i8** %1, align 8
  %9 = load i8, i8* %8, align 1
  %10 = sext i8 %9 to i32
  %11 = icmp ne i32 %10, 0
  br i1 %11, label %12, label %46

12:                                               ; preds = %7
  %13 = load i8*, i8** %1, align 8
  %14 = load i8, i8* %13, align 1
  %15 = sext i8 %14 to i32
  %16 = icmp ne i32 %15, 32
  br i1 %16, label %17, label %22

17:                                               ; preds = %12
  %18 = load i8*, i8** %1, align 8
  %19 = load i8, i8* %18, align 1
  %20 = sext i8 %19 to i32
  %21 = call i32 (i8*, ...) @printf(i8* getelementptr inbounds ([3 x i8], [3 x i8]* @.str, i64 0, i64 0), i32 %20)
  br label %42

22:                                               ; preds = %12
  br label %23

23:                                               ; preds = %38, %22
  %24 = load i8*, i8** %1, align 8
  %25 = load i8, i8* %24, align 1
  %26 = sext i8 %25 to i32
  %27 = icmp ne i32 %26, 0
  br i1 %27, label %28, label %41

28:                                               ; preds = %23
  %29 = load i8*, i8** %1, align 8
  %30 = load i8, i8* %29, align 1
  %31 = sext i8 %30 to i32
  %32 = icmp ne i32 %31, 32
  br i1 %32, label %33, label %37

33:                                               ; preds = %28
  %34 = load i8*, i8** %1, align 8
  %35 = getelementptr inbounds i8, i8* %34, i32 -1
  store i8* %35, i8** %1, align 8
  %36 = call i32 (i8*, ...) @printf(i8* getelementptr inbounds ([2 x i8], [2 x i8]* @.str.1, i64 0, i64 0))
  br label %41

37:                                               ; preds = %28
  br label %38

38:                                               ; preds = %37
  %39 = load i8*, i8** %1, align 8
  %40 = getelementptr inbounds i8, i8* %39, i32 1
  store i8* %40, i8** %1, align 8
  br label %23

41:                                               ; preds = %33, %23
  br label %42

42:                                               ; preds = %41, %17
  br label %43

43:                                               ; preds = %42
  %44 = load i8*, i8** %1, align 8
  %45 = getelementptr inbounds i8, i8* %44, i32 1
  store i8* %45, i8** %1, align 8
  br label %7

46:                                               ; preds = %7
  ret void
}

; Function Attrs: nounwind
declare dso_local noalias i8* @malloc(i64) #1

declare dso_local i32 @gets(...) #2

declare dso_local i32 @printf(i8*, ...) #2


!llvm.module.flags = !{!0}
!llvm.ident = !{!1}

!0 = !{i32 1, !"wchar_size", i32 4}
!1 = !{!"clang version 10.0.0-4ubuntu1 "}
